; Function Attrs: mustprogress uwtable
define hidden void @_ZNK6spacer20lemma_cluster_finder18collect_statisticsER10statistics(ptr noundef nonnull align 8 captures(none) dereferenceable(80) %0, ptr noundef nonnull align 8 dereferenceable(16) %1) local_unnamed_addr #3 align 2 {
  %3 = getelementptr inbounds nuw i8, ptr %0, i64 24
  %4 = load i8, ptr %3, align 8, !tbaa !193, !range !70, !noundef !71
  %5 = trunc nuw i8 %4 to i1
  br i1 %5, label %_ZN9stopwatch4stopEv.exit.i, label %_ZNK9stopwatch11get_secondsEv.exit

_ZN9stopwatch4stopEv.exit.i:                      ; preds = %2
  %6 = getelementptr inbounds nuw i8, ptr %0, i64 8
  %7 = tail call i64 @_ZNSt6chrono3_V212steady_clock3nowEv() #20
  %.sroa.0.0.copyload.i2.i.i.i = load i64, ptr %6, align 8, !tbaa !194
  %8 = sub i64 %7, %.sroa.0.0.copyload.i2.i.i.i
  %9 = getelementptr inbounds nuw i8, ptr %0, i64 16
  %10 = load i64, ptr %9, align 8, !tbaa !221
  %11 = add nsw i64 %8, %10
  store i64 %11, ptr %9, align 8, !tbaa !221
  store i8 0, ptr %3, align 8, !tbaa !193
  %12 = tail call i64 @_ZNSt6chrono3_V212steady_clock3nowEv() #20
  store i64 %12, ptr %6, align 8, !tbaa !194
  store i8 1, ptr %3, align 8, !tbaa !193
  br label %_ZNK9stopwatch11get_secondsEv.exit

_ZNK9stopwatch11get_secondsEv.exit:               ; preds = %2, %_ZN9stopwatch4stopEv.exit.i
  %13 = getelementptr inbounds nuw i8, ptr %0, i64 16
  %14 = load i64, ptr %13, align 8, !tbaa !221
  %15 = sdiv i64 %14, 1000000
  %16 = sitofp i64 %15 to double
  %17 = fdiv double %16, 1.000000e+03
  tail call void @_ZN10statistics6updateEPKcd(ptr noundef nonnull align 8 dereferenceable(16) %1, ptr noundef nonnull @.str.5, double noundef %17)
  ret void
}